; Function Attrs: mustprogress uwtable
define hidden noundef i64 @_ZNK3fmt3v114file4sizeEv(ptr noundef nonnull readonly align 4 captures(none) dereferenceable(4) %0) local_unnamed_addr #5 align 2 personality ptr @__gxx_personality_v0 {
  %2 = alloca %struct.stat, align 8
  call void @llvm.lifetime.start.p0(i64 144, ptr nonnull %2) #32
  call void @llvm.memset.p0.i64(ptr noundef nonnull align 8 dereferenceable(144) %2, i8 0, i64 144, i1 false)
  %3 = load i32, ptr %0, align 4, !tbaa !34
  %4 = call i32 @fstat(i32 noundef %3, ptr noundef nonnull %2) #32
  %5 = icmp eq i32 %4, -1
  br i1 %5, label %6, label %13

6:                                                ; preds = %1
  %7 = tail call ptr @__cxa_allocate_exception(i64 32) #32
  %8 = tail call ptr @__errno_location() #31
  %9 = load i32, ptr %8, align 4, !tbaa !10
  invoke void @_ZN3fmt3v1112system_errorIJEEESt12system_erroriNS0_7fstringIJDpT_EE1tEDpOS4_(ptr dead_on_unwind writable sret(%"class.std::system_error") align 8 %7, i32 noundef %9, ptr nonnull @.str.48, i64 26)
          to label %10 unwind label %11

10:                                               ; preds = %6
  tail call void @__cxa_throw(ptr %7, ptr nonnull @_ZTISt12system_error, ptr nonnull @_ZNSt12system_errorD1Ev) #35
  unreachable

11:                                               ; preds = %6
  %12 = landingpad { ptr, i32 }
          cleanup
  tail call void @__cxa_free_exception(ptr %7) #32
  call void @llvm.lifetime.end.p0(i64 144, ptr nonnull %2) #32
  resume { ptr, i32 } %12

13:                                               ; preds = %1
  %14 = getelementptr inbounds nuw i8, ptr %2, i64 48
  %15 = load i64, ptr %14, align 8, !tbaa !37
  call void @llvm.lifetime.end.p0(i64 144, ptr nonnull %2) #32
  ret i64 %15
}